target datalayout = "e-m:e-p270:32:32-p271:32:32-p272:64:64-i64:64-i128:128-f80:128-n8:16:32:64-S128"
target triple = "x86_64-pc-linux-gnu"

%class.extension_t = type { ptr, ptr }

@.str = private unnamed_addr constant [57 x i8] c"a COP exception was posted, but interrupts are disabled!\00", align 1
@_ZTISt11logic_error = external constant ptr

; Function Attrs: mustprogress uwtable
define void @_ZN11extension_t15raise_interruptEv(ptr noundef nonnull align 8 dereferenceable(16) %0) #6 align 2 personality ptr @__gxx_personality_v0 {
  %2 = alloca ptr, align 8
  %3 = alloca ptr, align 8
  %4 = alloca i32, align 4
  store ptr %0, ptr %2, align 8, !tbaa !3
  %5 = load ptr, ptr %2, align 8
  %6 = getelementptr inbounds nuw %class.extension_t, ptr %5, i32 0, i32 1
  %7 = load ptr, ptr %6, align 8, !tbaa !16
  call void @_ZN11processor_t14take_interruptEm(ptr noundef nonnull align 8 dereferenceable(266872) %7, i64 noundef 4096)
  %8 = call ptr @__cxa_allocate_exception(i64 16) #3
  invoke void @_ZNSt11logic_errorC1EPKc(ptr noundef nonnull align 8 dereferenceable(16) %8, ptr noundef @.str)
          to label %9 unwind label %10

9:                                                ; preds = %1
  call void @__cxa_throw(ptr %8, ptr @_ZTISt11logic_error, ptr @_ZNSt11logic_errorD1Ev) #20
  unreachable

10:                                               ; preds = %1
  %11 = landingpad { ptr, i32 }
          cleanup
  %12 = extractvalue { ptr, i32 } %11, 0
  store ptr %12, ptr %3, align 8
  %13 = extractvalue { ptr, i32 } %11, 1
  store i32 %13, ptr %4, align 4
  call void @__cxa_free_exception(ptr %8) #3
  br label %14

14:                                               ; preds = %10
  %15 = load ptr, ptr %3, align 8
  %16 = load i32, ptr %4, align 4
  %17 = insertvalue { ptr, i32 } poison, ptr %15, 0
  %18 = insertvalue { ptr, i32 } %17, i32 %16, 1
  resume { ptr, i32 } %18
}