; Function Attrs: mustprogress noreturn uwtable
define void @_ZN11extension_t15raise_interruptEv(ptr noundef nonnull readonly align 8 captures(none) dereferenceable(16) %0) local_unnamed_addr #9 align 2 personality ptr @__gxx_personality_v0 {
  %2 = getelementptr inbounds nuw i8, ptr %0, i64 8
  %3 = load ptr, ptr %2, align 8, !tbaa !14
  tail call void @_ZN11processor_t14take_interruptEm(ptr noundef nonnull align 8 dereferenceable(266872) %3, i64 noundef 4096)
  %4 = tail call ptr @__cxa_allocate_exception(i64 16) #18
  invoke void @_ZNSt11logic_errorC1EPKc(ptr noundef nonnull align 8 dereferenceable(16) %4, ptr noundef nonnull @.str)
          to label %5 unwind label %6

5:                                                ; preds = %1
  tail call void @__cxa_throw(ptr nonnull %4, ptr nonnull @_ZTISt11logic_error, ptr nonnull @_ZNSt11logic_errorD1Ev) #19
  unreachable

6:                                                ; preds = %1
  %7 = landingpad { ptr, i32 }
          cleanup
  tail call void @__cxa_free_exception(ptr nonnull %4) #18
  resume { ptr, i32 } %7
}